; Function Attrs: mustprogress uwtable
define void @_ZN6icu_779SpoofImplC2ER10UErrorCode(ptr noundef nonnull align 8 dereferenceable(44) initializes((0, 44)) %0, ptr noundef nonnull align 4 dereferenceable(4) %1) unnamed_addr #1 align 2 personality ptr @__gxx_personality_v0 {
  %3 = getelementptr inbounds nuw i8, ptr %0, i64 8
  store i32 944111087, ptr %3, align 8, !tbaa !3
  store ptr getelementptr inbounds nuw inrange(-16, 24) (i8, ptr @_ZTVN6icu_779SpoofImplE, i64 16), ptr %0, align 8, !tbaa !8
  %4 = getelementptr inbounds nuw i8, ptr %0, i64 12
  store i32 65535, ptr %4, align 4, !tbaa !10
  %5 = getelementptr inbounds nuw i8, ptr %0, i64 16
  %6 = getelementptr inbounds nuw i8, ptr %0, i64 24
  %7 = getelementptr inbounds nuw i8, ptr %0, i64 32
  %8 = getelementptr inbounds nuw i8, ptr %0, i64 40
  tail call void @llvm.memset.p0.i64(ptr noundef nonnull align 8 dereferenceable(24) %5, i8 0, i64 24, i1 false)
  store i32 805306368, ptr %8, align 8, !tbaa !18
  %9 = load i32, ptr %1, align 4, !tbaa !19
  %10 = icmp slt i32 %9, 1
  br i1 %10, label %11, label %_ZN6icu_779SpoofImpl9constructER10UErrorCode.exit

11:                                               ; preds = %2
  %12 = tail call noundef ptr @_ZN6icu_777UMemorynwEm(i64 noundef 200) #21
  %13 = icmp eq ptr %12, null
  br i1 %13, label %15, label %14

14:                                               ; preds = %11
  invoke void @_ZN6icu_7710UnicodeSetC1Eii(ptr noundef nonnull align 8 dereferenceable(200) %12, i32 noundef 0, i32 noundef 1114111)
          to label %15 unwind label %21

15:                                               ; preds = %14, %11
  store ptr %12, ptr %6, align 8, !tbaa !21
  %16 = invoke ptr @uprv_strdup_77(ptr noundef nonnull @.str)
          to label %.noexc unwind label %27

.noexc:                                           ; preds = %15
  store ptr %16, ptr %7, align 8, !tbaa !22
  %17 = load ptr, ptr %6, align 8, !tbaa !21
  %18 = icmp eq ptr %17, null
  %19 = icmp eq ptr %16, null
  %or.cond.i = select i1 %18, i1 true, i1 %19
  br i1 %or.cond.i, label %20, label %23

20:                                               ; preds = %.noexc
  store i32 7, ptr %1, align 4, !tbaa !19
  br label %_ZN6icu_779SpoofImpl9constructER10UErrorCode.exit

21:                                               ; preds = %14
  %22 = landingpad { ptr, i32 }
          cleanup
  tail call void @_ZN6icu_777UMemorydlEPv(ptr noundef nonnull %12) #21
  br label %.body

23:                                               ; preds = %.noexc
  %24 = invoke noundef ptr @_ZN6icu_7710UnicodeSet6freezeEv(ptr noundef nonnull align 8 dereferenceable(200) %12)
          to label %_ZN6icu_779SpoofImpl9constructER10UErrorCode.exit unwind label %27

_ZN6icu_779SpoofImpl9constructER10UErrorCode.exit: ; preds = %20, %2, %23
  %25 = invoke noundef ptr @_ZN6icu_779SpoofData10getDefaultER10UErrorCode(ptr noundef nonnull align 4 dereferenceable(4) %1)
          to label %26 unwind label %27

26:                                               ; preds = %_ZN6icu_779SpoofImpl9constructER10UErrorCode.exit
  store ptr %25, ptr %5, align 8, !tbaa !23
  ret void

27:                                               ; preds = %23, %15, %_ZN6icu_779SpoofImpl9constructER10UErrorCode.exit
  %28 = landingpad { ptr, i32 }
          cleanup
  br label %.body

.body:                                            ; preds = %21, %27
  %eh.lpad-body = phi { ptr, i32 } [ %28, %27 ], [ %22, %21 ]
  store i32 0, ptr %3, align 8, !tbaa !3
  tail call void @_ZN6icu_777UObjectD2Ev(ptr noundef nonnull align 8 dereferenceable(8) %0) #21
  resume { ptr, i32 } %eh.lpad-body
}